target datalayout = "e-m:e-p270:32:32-p271:32:32-p272:64:64-i64:64-i128:128-f80:128-n8:16:32:64-S128"
target triple = "x86_64-pc-linux-gnu"

%"class.std::ios_base" = type { ptr, i64, i64, i32, i32, i32, ptr, %"struct.std::ios_base::_Words", [8 x %"struct.std::ios_base::_Words"], i32, ptr, %"class.std::locale" }
%"struct.std::ios_base::_Words" = type { ptr, i64 }
%"class.std::locale" = type { ptr }
%"class.testing::internal::ComparisonBase" = type { %"struct.(anonymous namespace)::ErrnoPrinter" }
%"struct.(anonymous namespace)::ErrnoPrinter" = type { i32 }
%"class.testing::internal::MatcherBase" = type { %"class.testing::MatcherDescriberInterface", ptr, %"union.testing::internal::MatcherBase<const (anonymous namespace)::ErrnoPrinter &>::Buffer" }
%"class.testing::MatcherDescriberInterface" = type { ptr }
%"union.testing::internal::MatcherBase<const (anonymous namespace)::ErrnoPrinter &>::Buffer" = type { ptr }

@.str.13 = private unnamed_addr constant [2 x i8] c" \00", align 1
@.str.14 = private unnamed_addr constant [15 x i8] c"isn't equal to\00", align 1
@.str.17 = private unnamed_addr constant [12 x i8] c"is equal to\00", align 1

; Function Attrs: inlinehint mustprogress nounwind uwtable
define linkonce_odr dso_local noundef i32 @_ZStorSt12_Ios_IostateS_(i32 noundef %0, i32 noundef %1) #10 comdat {
  %3 = alloca i32, align 4
  %4 = alloca i32, align 4
  store i32 %0, ptr %3, align 4, !tbaa !171
  store i32 %1, ptr %4, align 4, !tbaa !171
  %5 = load i32, ptr %3, align 4, !tbaa !171
  %6 = load i32, ptr %4, align 4, !tbaa !171
  %7 = or i32 %5, %6
  ret i32 %7
}

; Function Attrs: mustprogress nounwind uwtable
define available_externally noundef i32 @_ZNKSt9basic_iosIcSt11char_traitsIcEE7rdstateEv(ptr noundef nonnull align 8 dereferenceable(264) %0) #5 align 2 {
  %2 = alloca ptr, align 8
  store ptr %0, ptr %2, align 8, !tbaa !129
  %3 = load ptr, ptr %2, align 8
  %4 = getelementptr inbounds nuw %"class.std::ios_base", ptr %3, i32 0, i32 5
  %5 = load i32, ptr %4, align 8, !tbaa !172
  ret i32 %5
}

; Function Attrs: mustprogress nounwind uwtable
define linkonce_odr dso_local noundef i64 @_ZNSt11char_traitsIcE6lengthEPKc(ptr noundef %0) #5 comdat align 2 {
  %2 = alloca ptr, align 8
  store ptr %0, ptr %2, align 8, !tbaa !13
  %3 = load ptr, ptr %2, align 8, !tbaa !13
  %4 = call i64 @strlen(ptr noundef %3) #3
  ret i64 %4
}

; Function Attrs: mustprogress uwtable
define available_externally void @_ZNSt9basic_iosIcSt11char_traitsIcEE8setstateESt12_Ios_Iostate(ptr noundef nonnull align 8 dereferenceable(264) %0, i32 noundef %1) #6 align 2 {
  %3 = alloca ptr, align 8
  %4 = alloca i32, align 4
  store ptr %0, ptr %3, align 8, !tbaa !129
  store i32 %1, ptr %4, align 4, !tbaa !171
  %5 = load ptr, ptr %3, align 8
  %6 = call noundef i32 @_ZNKSt9basic_iosIcSt11char_traitsIcEE7rdstateEv(ptr noundef nonnull align 8 dereferenceable(264) %5)
  %7 = load i32, ptr %4, align 4, !tbaa !171
  %8 = call noundef i32 @_ZStorSt12_Ios_IostateS_(i32 noundef %6, i32 noundef %7)
  call void @_ZNSt9basic_iosIcSt11char_traitsIcEE5clearESt12_Ios_Iostate(ptr noundef nonnull align 8 dereferenceable(264) %5, i32 noundef %8)
  ret void
}

; Function Attrs: mustprogress nounwind uwtable
define internal noundef ptr @_ZN7testing8internal9EqMatcherIN12_GLOBAL__N_112ErrnoPrinterEE4DescEv() #5 align 2 {
  ret ptr @.str.17
}

; Function Attrs: mustprogress nounwind uwtable
define internal noundef nonnull align 4 dereferenceable(4) ptr @_ZN7testing8internal14ComparisonBaseINS0_9EqMatcherIN12_GLOBAL__N_112ErrnoPrinterEEES4_St8equal_toIvEE6UnwrapIS4_EERKT_SC_(ptr noundef nonnull align 4 dereferenceable(4) %0) #5 align 2 {
  %2 = alloca ptr, align 8
  store ptr %0, ptr %2, align 8, !tbaa !52
  %3 = load ptr, ptr %2, align 8, !tbaa !52
  ret ptr %3
}

; Function Attrs: inlinehint mustprogress uwtable
define available_externally noundef nonnull align 8 dereferenceable(8) ptr @_ZStlsISt11char_traitsIcEERSt13basic_ostreamIcT_ES5_PKc(ptr noundef nonnull align 8 dereferenceable(8) %0, ptr noundef %1) #8 {
  %3 = alloca ptr, align 8
  %4 = alloca ptr, align 8
  store ptr %0, ptr %3, align 8, !tbaa !78
  store ptr %1, ptr %4, align 8, !tbaa !13
  %5 = load ptr, ptr %4, align 8, !tbaa !13
  %6 = icmp ne ptr %5, null
  br i1 %6, label %13, label %7

7:                                                ; preds = %2
  %8 = load ptr, ptr %3, align 8, !tbaa !78
  %9 = load ptr, ptr %8, align 8, !tbaa !27
  %10 = getelementptr i8, ptr %9, i64 -24
  %11 = load i64, ptr %10, align 8
  %12 = getelementptr inbounds i8, ptr %8, i64 %11
  call void @_ZNSt9basic_iosIcSt11char_traitsIcEE8setstateESt12_Ios_Iostate(ptr noundef nonnull align 8 dereferenceable(264) %12, i32 noundef 1)
  br label %19

13:                                               ; preds = %2
  %14 = load ptr, ptr %3, align 8, !tbaa !78
  %15 = load ptr, ptr %4, align 8, !tbaa !13
  %16 = load ptr, ptr %4, align 8, !tbaa !13
  %17 = call noundef i64 @_ZNSt11char_traitsIcE6lengthEPKc(ptr noundef %16)
  %18 = call noundef nonnull align 8 dereferenceable(8) ptr @_ZSt16__ostream_insertIcSt11char_traitsIcEERSt13basic_ostreamIT_T0_ES6_PKS3_l(ptr noundef nonnull align 8 dereferenceable(8) %14, ptr noundef %15, i64 noundef %17)
  br label %19

19:                                               ; preds = %13, %7
  %20 = load ptr, ptr %3, align 8, !tbaa !78
  ret ptr %20
}

; Function Attrs: mustprogress nounwind uwtable
define internal noundef ptr @_ZN7testing8internal9EqMatcherIN12_GLOBAL__N_112ErrnoPrinterEE11NegatedDescEv() #5 align 2 {
  ret ptr @.str.14
}

; Function Attrs: mustprogress uwtable
define internal void @_ZNK7testing8internal14ComparisonBaseINS0_9EqMatcherIN12_GLOBAL__N_112ErrnoPrinterEEES4_St8equal_toIvEE10DescribeToEPSo(ptr noundef nonnull align 4 dereferenceable(4) %0, ptr noundef %1) #6 align 2 {
  %3 = alloca ptr, align 8
  %4 = alloca ptr, align 8
  store ptr %0, ptr %3, align 8, !tbaa !71
  store ptr %1, ptr %4, align 8, !tbaa !78
  %5 = load ptr, ptr %3, align 8
  %6 = load ptr, ptr %4, align 8, !tbaa !78
  %7 = call noundef ptr @_ZN7testing8internal9EqMatcherIN12_GLOBAL__N_112ErrnoPrinterEE4DescEv()
  %8 = call noundef nonnull align 8 dereferenceable(8) ptr @_ZStlsISt11char_traitsIcEERSt13basic_ostreamIcT_ES5_PKc(ptr noundef nonnull align 8 dereferenceable(8) %6, ptr noundef %7)
  %9 = call noundef nonnull align 8 dereferenceable(8) ptr @_ZStlsISt11char_traitsIcEERSt13basic_ostreamIcT_ES5_PKc(ptr noundef nonnull align 8 dereferenceable(8) %8, ptr noundef @.str.13)
  %10 = getelementptr inbounds nuw %"class.testing::internal::ComparisonBase", ptr %5, i32 0, i32 0
  %11 = call noundef nonnull align 4 dereferenceable(4) ptr @_ZN7testing8internal14ComparisonBaseINS0_9EqMatcherIN12_GLOBAL__N_112ErrnoPrinterEEES4_St8equal_toIvEE6UnwrapIS4_EERKT_SC_(ptr noundef nonnull align 4 dereferenceable(4) %10)
  %12 = load ptr, ptr %4, align 8, !tbaa !78
  call void @_ZN7testing8internal14UniversalPrintIN12_GLOBAL__N_112ErrnoPrinterEEEvRKT_PSo(ptr noundef nonnull align 4 dereferenceable(4) %11, ptr noundef %12)
  ret void
}

; Function Attrs: mustprogress uwtable
define internal void @_ZNK7testing8internal14ComparisonBaseINS0_9EqMatcherIN12_GLOBAL__N_112ErrnoPrinterEEES4_St8equal_toIvEE18DescribeNegationToEPSo(ptr noundef nonnull align 4 dereferenceable(4) %0, ptr noundef %1) #6 align 2 {
  %3 = alloca ptr, align 8
  %4 = alloca ptr, align 8
  store ptr %0, ptr %3, align 8, !tbaa !71
  store ptr %1, ptr %4, align 8, !tbaa !78
  %5 = load ptr, ptr %3, align 8
  %6 = load ptr, ptr %4, align 8, !tbaa !78
  %7 = call noundef ptr @_ZN7testing8internal9EqMatcherIN12_GLOBAL__N_112ErrnoPrinterEE11NegatedDescEv()
  %8 = call noundef nonnull align 8 dereferenceable(8) ptr @_ZStlsISt11char_traitsIcEERSt13basic_ostreamIcT_ES5_PKc(ptr noundef nonnull align 8 dereferenceable(8) %6, ptr noundef %7)
  %9 = call noundef nonnull align 8 dereferenceable(8) ptr @_ZStlsISt11char_traitsIcEERSt13basic_ostreamIcT_ES5_PKc(ptr noundef nonnull align 8 dereferenceable(8) %8, ptr noundef @.str.13)
  %10 = getelementptr inbounds nuw %"class.testing::internal::ComparisonBase", ptr %5, i32 0, i32 0
  %11 = call noundef nonnull align 4 dereferenceable(4) ptr @_ZN7testing8internal14ComparisonBaseINS0_9EqMatcherIN12_GLOBAL__N_112ErrnoPrinterEEES4_St8equal_toIvEE6UnwrapIS4_EERKT_SC_(ptr noundef nonnull align 4 dereferenceable(4) %10)
  %12 = load ptr, ptr %4, align 8, !tbaa !78
  call void @_ZN7testing8internal14UniversalPrintIN12_GLOBAL__N_112ErrnoPrinterEEEvRKT_PSo(ptr noundef nonnull align 4 dereferenceable(4) %11, ptr noundef %12)
  ret void
}

; Function Attrs: mustprogress nounwind uwtable
define internal noundef nonnull align 4 dereferenceable(4) ptr @_ZN7testing8internal11MatcherBaseIRKN12_GLOBAL__N_112ErrnoPrinterEE11ValuePolicyINS0_9EqMatcherIS3_EELb1EE3GetERKS6_(ptr noundef nonnull align 8 dereferenceable(24) %0) #5 align 2 {
  %2 = alloca ptr, align 8
  %3 = alloca ptr, align 8
  store ptr %0, ptr %2, align 8, !tbaa !74
  call void @llvm.lifetime.start.p0(i64 8, ptr %3) #3
  %4 = load ptr, ptr %2, align 8, !tbaa !74
  %5 = getelementptr inbounds nuw %"class.testing::internal::MatcherBase", ptr %4, i32 0, i32 2
  store ptr %5, ptr %3, align 8, !tbaa !69
  %6 = load ptr, ptr %3, align 8, !tbaa !69
  call void @llvm.lifetime.end.p0(i64 8, ptr %3) #3
  ret ptr %6
}

; Function Attrs: mustprogress uwtable
define internal void @_ZN7testing8internal11MatcherBaseIRKN12_GLOBAL__N_112ErrnoPrinterEE12DescribeImplINS6_11ValuePolicyINS0_9EqMatcherIS3_EELb1EEEEEvRKS6_PSob(ptr noundef nonnull align 8 dereferenceable(24) %0, ptr noundef %1, i1 noundef zeroext %2) #6 align 2 {
  %4 = alloca ptr, align 8
  %5 = alloca ptr, align 8
  %6 = alloca i8, align 1
  store ptr %0, ptr %4, align 8, !tbaa !74
  store ptr %1, ptr %5, align 8, !tbaa !78
  %7 = zext i1 %2 to i8
  store i8 %7, ptr %6, align 1, !tbaa !92
  %8 = load i8, ptr %6, align 1, !tbaa !92, !range !65, !noundef !66
  %9 = trunc i8 %8 to i1
  br i1 %9, label %10, label %14

10:                                               ; preds = %3
  %11 = load ptr, ptr %4, align 8, !tbaa !74
  %12 = call noundef nonnull align 4 dereferenceable(4) ptr @_ZN7testing8internal11MatcherBaseIRKN12_GLOBAL__N_112ErrnoPrinterEE11ValuePolicyINS0_9EqMatcherIS3_EELb1EE3GetERKS6_(ptr noundef nonnull align 8 dereferenceable(24) %11)
  %13 = load ptr, ptr %5, align 8, !tbaa !78
  call void @_ZNK7testing8internal14ComparisonBaseINS0_9EqMatcherIN12_GLOBAL__N_112ErrnoPrinterEEES4_St8equal_toIvEE18DescribeNegationToEPSo(ptr noundef nonnull align 4 dereferenceable(4) %12, ptr noundef %13)
  br label %18

14:                                               ; preds = %3
  %15 = load ptr, ptr %4, align 8, !tbaa !74
  %16 = call noundef nonnull align 4 dereferenceable(4) ptr @_ZN7testing8internal11MatcherBaseIRKN12_GLOBAL__N_112ErrnoPrinterEE11ValuePolicyINS0_9EqMatcherIS3_EELb1EE3GetERKS6_(ptr noundef nonnull align 8 dereferenceable(24) %15)
  %17 = load ptr, ptr %5, align 8, !tbaa !78
  call void @_ZNK7testing8internal14ComparisonBaseINS0_9EqMatcherIN12_GLOBAL__N_112ErrnoPrinterEEES4_St8equal_toIvEE10DescribeToEPSo(ptr noundef nonnull align 4 dereferenceable(4) %16, ptr noundef %17)
  br label %18

18:                                               ; preds = %14, %10
  ret void
}