; Function Attrs: mustprogress uwtable
define internal void @_ZN7testing8internal11MatcherBaseIRKN12_GLOBAL__N_112ErrnoPrinterEE12DescribeImplINS6_11ValuePolicyINS0_9EqMatcherIS3_EELb1EEEEEvRKS6_PSob(ptr noundef nonnull readonly align 8 captures(none) dereferenceable(24) %0, ptr noundef %1, i1 noundef zeroext %2) #4 align 2 {
  br i1 %2, label %4, label %6

4:                                                ; preds = %3
  %5 = tail call noundef nonnull align 8 dereferenceable(8) ptr @_ZSt16__ostream_insertIcSt11char_traitsIcEERSt13basic_ostreamIT_T0_ES6_PKS3_l(ptr noundef nonnull align 8 dereferenceable(8) %1, ptr noundef nonnull @.str.14, i64 noundef 14)
  br label %8

6:                                                ; preds = %3
  %7 = tail call noundef nonnull align 8 dereferenceable(8) ptr @_ZSt16__ostream_insertIcSt11char_traitsIcEERSt13basic_ostreamIT_T0_ES6_PKS3_l(ptr noundef nonnull align 8 dereferenceable(8) %1, ptr noundef nonnull @.str.17, i64 noundef 11)
  br label %8

8:                                                ; preds = %6, %4
  %9 = getelementptr inbounds nuw i8, ptr %0, i64 16
  %10 = tail call noundef nonnull align 8 dereferenceable(8) ptr @_ZSt16__ostream_insertIcSt11char_traitsIcEERSt13basic_ostreamIT_T0_ES6_PKS3_l(ptr noundef nonnull align 8 dereferenceable(8) %1, ptr noundef nonnull @.str.13, i64 noundef 1)
  %.val.i4 = load i32, ptr %9, align 8, !tbaa !20
  tail call fastcc void @_ZN7testing8internal14UniversalPrintIN12_GLOBAL__N_112ErrnoPrinterEEEvRKT_PSo(i32 %.val.i4, ptr noundef nonnull %1)
  ret void
}